; Function Attrs: mustprogress uwtable
define noundef nonnull ptr @_ZN7rocksdb16NewEmptyIteratorEv() local_unnamed_addr #1 personality ptr @__gxx_personality_v0 {
  %1 = alloca %"class.rocksdb::Status", align 8
  %2 = tail call noalias noundef nonnull dereferenceable(56) ptr @_Znwm(i64 noundef 56) #12
  call void @llvm.lifetime.start.p0(i64 16, ptr nonnull %1) #14
  %3 = getelementptr inbounds nuw i8, ptr %1, i64 8
  store ptr null, ptr %3, align 8, !tbaa !29, !alias.scope !62
  call void @llvm.memset.p0.i64(ptr noundef nonnull align 8 dereferenceable(16) %1, i8 0, i64 6, i1 false), !alias.scope !62
  invoke fastcc void @_ZN7rocksdb12_GLOBAL__N_113EmptyIteratorC2ERKNS_6StatusE(ptr noundef nonnull align 8 dereferenceable(56) %2, ptr noundef nonnull align 8 dereferenceable(16) %1)
          to label %_ZN7rocksdb6StatusD2Ev.exit unwind label %_ZN7rocksdb6StatusD2Ev.exit6

_ZN7rocksdb6StatusD2Ev.exit:                      ; preds = %0
  call void @llvm.lifetime.end.p0(i64 16, ptr nonnull %1) #14
  ret ptr %2

_ZN7rocksdb6StatusD2Ev.exit6:                     ; preds = %0
  %4 = landingpad { ptr, i32 }
          cleanup
  call void @llvm.lifetime.end.p0(i64 16, ptr nonnull %1) #14
  tail call void @_ZdlPvm(ptr noundef nonnull %2, i64 noundef 56) #13
  resume { ptr, i32 } %4
}